target datalayout = "e-m:e-p270:32:32-p271:32:32-p272:64:64-i64:64-i128:128-f80:128-n8:16:32:64-S128"
target triple = "x86_64-pc-linux-gnu"

@.str = private unnamed_addr constant [40 x i8] c"../openssl/test/keymgmt_internal_test.c\00", align 1
@.str.83 = private unnamed_addr constant [25 x i8] c"OSSL_PARAM_get_BN(p, &n)\00", align 1
@.str.84 = private unnamed_addr constant [57 x i8] c"BN_bn2nativepad(n, (unsigned char *)goal, sizeof(*goal))\00", align 1
@.str.85 = private unnamed_addr constant [2 x i8] c"0\00", align 1

; Function Attrs: nounwind uwtable
define internal i32 @get_ulong_via_BN(ptr noundef %0, ptr noundef %1) #0 {
  %3 = alloca ptr, align 8
  %4 = alloca ptr, align 8
  %5 = alloca ptr, align 8
  %6 = alloca i32, align 4
  store ptr %0, ptr %3, align 8, !tbaa !39
  store ptr %1, ptr %4, align 8, !tbaa !41
  call void @llvm.lifetime.start.p0(i64 8, ptr %5) #4
  store ptr null, ptr %5, align 8, !tbaa !33
  call void @llvm.lifetime.start.p0(i64 4, ptr %6) #4
  store i32 1, ptr %6, align 4, !tbaa !9
  %7 = load ptr, ptr %3, align 8, !tbaa !39
  %8 = call i32 @OSSL_PARAM_get_BN(ptr noundef %7, ptr noundef %5)
  %9 = icmp ne i32 %8, 0
  %10 = zext i1 %9 to i32
  %11 = call i32 @test_true(ptr noundef @.str, i32 noundef 94, ptr noundef @.str.83, i32 noundef %10)
  %12 = icmp ne i32 %11, 0
  br i1 %12, label %13, label %19

13:                                               ; preds = %2
  %14 = load ptr, ptr %5, align 8, !tbaa !33
  %15 = load ptr, ptr %4, align 8, !tbaa !41
  %16 = call i32 @BN_bn2nativepad(ptr noundef %14, ptr noundef %15, i32 noundef 8)
  %17 = call i32 @test_int_ge(ptr noundef @.str, i32 noundef 95, ptr noundef @.str.84, ptr noundef @.str.85, i32 noundef %16, i32 noundef 0)
  %18 = icmp ne i32 %17, 0
  br i1 %18, label %20, label %19

19:                                               ; preds = %13, %2
  store i32 0, ptr %6, align 4, !tbaa !9
  br label %20

20:                                               ; preds = %19, %13
  %21 = load ptr, ptr %5, align 8, !tbaa !33
  call void @BN_free(ptr noundef %21)
  %22 = load i32, ptr %6, align 4, !tbaa !9
  call void @llvm.lifetime.end.p0(i64 4, ptr %6) #4
  call void @llvm.lifetime.end.p0(i64 8, ptr %5) #4
  ret i32 %22
}