; Function Attrs: nounwind uwtable
define internal fastcc range(i32 0, 2) i32 @get_ulong_via_BN(ptr noundef %0, ptr noundef nonnull %1) unnamed_addr #0 {
  %3 = alloca ptr, align 8
  call void @llvm.lifetime.start.p0(i64 8, ptr nonnull %3) #3
  store ptr null, ptr %3, align 8, !tbaa !18
  %4 = call i32 @OSSL_PARAM_get_BN(ptr noundef %0, ptr noundef nonnull %3) #3
  %5 = icmp ne i32 %4, 0
  %6 = zext i1 %5 to i32
  %7 = call i32 @test_true(ptr noundef nonnull @.str, i32 noundef 94, ptr noundef nonnull @.str.83, i32 noundef %6) #3
  %.not = icmp eq i32 %7, 0
  br i1 %.not, label %12, label %8

8:                                                ; preds = %2
  %9 = load ptr, ptr %3, align 8, !tbaa !18
  %10 = call i32 @BN_bn2nativepad(ptr noundef %9, ptr noundef nonnull %1, i32 noundef 8) #3
  %11 = call i32 @test_int_ge(ptr noundef nonnull @.str, i32 noundef 95, ptr noundef nonnull @.str.84, ptr noundef nonnull @.str.85, i32 noundef %10, i32 noundef 0) #3
  %.not2 = icmp eq i32 %11, 0
  br i1 %.not2, label %12, label %13

12:                                               ; preds = %8, %2
  br label %13

13:                                               ; preds = %12, %8
  %.0 = phi i32 [ 1, %8 ], [ 0, %12 ]
  %14 = load ptr, ptr %3, align 8, !tbaa !18
  call void @BN_free(ptr noundef %14) #3
  call void @llvm.lifetime.end.p0(i64 8, ptr nonnull %3) #3
  ret i32 %.0
}